; Function Attrs: mustprogress nounwind uwtable
define hidden void @_ZN22SystemDictionaryShared12set_excludedEP13InstanceKlass(ptr noundef %0) local_unnamed_addr #0 align 2 {
  %2 = load ptr, ptr @DumpTimeTable_lock, align 8
  %.not.i.i.i = icmp eq ptr %2, null
  br i1 %.not.i.i.i, label %_ZN11MutexLockerC2EP5MutexNS0_18SafepointCheckFlagE.exit.thread.i, label %5

_ZN11MutexLockerC2EP5MutexNS0_18SafepointCheckFlagE.exit.thread.i: ; preds = %1
  %3 = load ptr, ptr @_ZN22SystemDictionaryShared15_dumptime_tableE, align 8
  %4 = tail call noundef ptr @_ZN24DumpTimeSharedClassTable8get_infoEP13InstanceKlass(ptr noundef nonnull align 8 dereferenceable(127124) %3, ptr noundef %0) #18
  br label %_ZN22SystemDictionaryShared8get_infoEP13InstanceKlass.exit

5:                                                ; preds = %1
  tail call void @_ZN5Mutex28lock_without_safepoint_checkEv(ptr noundef nonnull align 8 dereferenceable(104) %2) #18
  %6 = load ptr, ptr @_ZN22SystemDictionaryShared15_dumptime_tableE, align 8
  %7 = tail call noundef ptr @_ZN24DumpTimeSharedClassTable8get_infoEP13InstanceKlass(ptr noundef nonnull align 8 dereferenceable(127124) %6, ptr noundef %0) #18
  tail call void @_ZN5Mutex6unlockEv(ptr noundef nonnull align 8 dereferenceable(104) %2) #18
  br label %_ZN22SystemDictionaryShared8get_infoEP13InstanceKlass.exit

_ZN22SystemDictionaryShared8get_infoEP13InstanceKlass.exit: ; preds = %_ZN11MutexLockerC2EP5MutexNS0_18SafepointCheckFlagE.exit.thread.i, %5
  %8 = phi ptr [ %4, %_ZN11MutexLockerC2EP5MutexNS0_18SafepointCheckFlagE.exit.thread.i ], [ %7, %5 ]
  store i8 1, ptr %8, align 8
  ret void
}